target datalayout = "e-m:e-p270:32:32-p271:32:32-p272:64:64-i64:64-i128:128-f80:128-n8:16:32:64-S128"
target triple = "x86_64-pc-linux-gnu"

%struct.AVChannelLayout = type { i32, i32, %union.anon.1, ptr }
%union.anon.1 = type { i64 }
%struct.AVRational = type { i32, i32 }
%struct.AVFrame = type { [8 x ptr], [8 x i32], ptr, i32, i32, i32, i32, i32, %struct.AVRational, i64, i64, %struct.AVRational, i32, ptr, i32, i32, [8 x ptr], ptr, i32, ptr, i32, i32, i32, i32, i32, i32, i32, i64, ptr, i32, ptr, ptr, i64, i64, i64, i64, ptr, %struct.AVChannelLayout, i64 }

; Function Attrs: nounwind uwtable
define internal void @pick_pixel1_16(ptr noundef %0, i32 noundef %1, i32 noundef %2, ptr noundef %3, ptr noundef %4, ptr noundef %5, ptr noundef %6) #1 {
  %8 = alloca ptr, align 8
  %9 = alloca i32, align 4
  %10 = alloca i32, align 4
  %11 = alloca ptr, align 8
  %12 = alloca ptr, align 8
  %13 = alloca ptr, align 8
  %14 = alloca ptr, align 8
  store ptr %0, ptr %8, align 8, !tbaa !26
  store i32 %1, ptr %9, align 4, !tbaa !36
  store i32 %2, ptr %10, align 4, !tbaa !36
  store ptr %3, ptr %11, align 8, !tbaa !72
  store ptr %4, ptr %12, align 8, !tbaa !72
  store ptr %5, ptr %13, align 8, !tbaa !72
  store ptr %6, ptr %14, align 8, !tbaa !72
  %15 = load ptr, ptr %11, align 8, !tbaa !72
  %16 = load i32, ptr %15, align 4, !tbaa !36
  %17 = icmp slt i32 %16, 0
  br i1 %17, label %18, label %38

18:                                               ; preds = %7
  %19 = load ptr, ptr %8, align 8, !tbaa !26
  %20 = getelementptr inbounds nuw %struct.AVFrame, ptr %19, i32 0, i32 0
  %21 = getelementptr inbounds [8 x ptr], ptr %20, i64 0, i64 0
  %22 = load ptr, ptr %21, align 8, !tbaa !70
  %23 = load i32, ptr %10, align 4, !tbaa !36
  %24 = load ptr, ptr %8, align 8, !tbaa !26
  %25 = getelementptr inbounds nuw %struct.AVFrame, ptr %24, i32 0, i32 1
  %26 = getelementptr inbounds [8 x i32], ptr %25, i64 0, i64 0
  %27 = load i32, ptr %26, align 8, !tbaa !36
  %28 = mul nsw i32 %23, %27
  %29 = sext i32 %28 to i64
  %30 = getelementptr inbounds i8, ptr %22, i64 %29
  %31 = load i32, ptr %9, align 4, !tbaa !36
  %32 = mul nsw i32 2, %31
  %33 = sext i32 %32 to i64
  %34 = getelementptr inbounds i8, ptr %30, i64 %33
  %35 = load i16, ptr %34, align 1, !tbaa !71
  %36 = zext i16 %35 to i32
  %37 = load ptr, ptr %11, align 8, !tbaa !72
  store i32 %36, ptr %37, align 4, !tbaa !36
  br label %38

38:                                               ; preds = %18, %7
  ret void
}