; Function Attrs: mustprogress nofree norecurse nosync nounwind willreturn memory(read, argmem: readwrite, inaccessiblemem: none) uwtable
define internal void @pick_pixel1_16(ptr noundef readonly captures(none) %0, i32 noundef %1, i32 noundef %2, ptr noundef captures(none) %3, ptr readnone captures(none) %4, ptr readnone captures(none) %5, ptr readnone captures(none) %6) #6 {
  %8 = load i32, ptr %3, align 4, !tbaa !31
  %9 = icmp slt i32 %8, 0
  br i1 %9, label %10, label %22

10:                                               ; preds = %7
  %11 = load ptr, ptr %0, align 8, !tbaa !65
  %12 = getelementptr inbounds nuw i8, ptr %0, i64 64
  %13 = load i32, ptr %12, align 8, !tbaa !31
  %14 = mul nsw i32 %13, %2
  %15 = sext i32 %14 to i64
  %16 = getelementptr inbounds i8, ptr %11, i64 %15
  %17 = shl nsw i32 %1, 1
  %18 = sext i32 %17 to i64
  %19 = getelementptr inbounds i8, ptr %16, i64 %18
  %20 = load i16, ptr %19, align 1, !tbaa !66
  %21 = zext i16 %20 to i32
  store i32 %21, ptr %3, align 4, !tbaa !31
  br label %22

22:                                               ; preds = %10, %7
  ret void
}